; ModuleID = '49/1081.c'
source_filename = "49/1081.c"
target datalayout = "e-m:e-p270:32:32-p271:32:32-p272:64:64-i64:64-f80:128-n8:16:32:64-S128"
target triple = "x86_64-pc-linux-gnu"

@.str = private unnamed_addr constant [3 x i8] c"%c\00", align 1
@.str.1 = private unnamed_addr constant [2 x i8] c"\0A\00", align 1

; Function Attrs: noinline nounwind uwtable
define dso_local i32 @main() #0 {
  %1 = alloca i32, align 4
  %2 = alloca [502 x i8], align 16
  %3 = alloca [502 x i8], align 16
  %4 = alloca i32, align 4
  %5 = alloca i32, align 4
  %6 = alloca i32, align 4
  %7 = alloca i32, align 4
  %8 = alloca i32, align 4
  %9 = alloca i32, align 4
  %10 = alloca i32, align 4
  store i32 0, i32* %1, align 4
  %11 = getelementptr inbounds [502 x i8], [502 x i8]* %2, i64 0, i64 0
  %12 = call i32 (i8*, ...) bitcast (i32 (...)* @gets to i32 (i8*, ...)*)(i8* %11)
  %13 = getelementptr inbounds [502 x i8], [502 x i8]* %2, i64 0, i64 0
  %14 = call i64 @strlen(i8* %13) #3
  %15 = trunc i64 %14 to i32
  store i32 %15, i32* %8, align 4
  store i32 1, i32* %6, align 4
  br label %16

16:                                               ; preds = %115, %0
  %17 = load i32, i32* %6, align 4
  %18 = load i32, i32* %8, align 4
  %19 = sub nsw i32 %18, 1
  %20 = icmp sle i32 %17, %19
  br i1 %20, label %21, label %118

21:                                               ; preds = %16
  store i32 0, i32* %4, align 4
  br label %22

22:                                               ; preds = %111, %21
  %23 = load i32, i32* %4, align 4
  %24 = load i32, i32* %8, align 4
  %25 = load i32, i32* %6, align 4
  %26 = sub nsw i32 %24, %25
  %27 = sub nsw i32 %26, 1
  %28 = icmp sle i32 %23, %27
  br i1 %28, label %29, label %114

29:                                               ; preds = %22
  %30 = load i32, i32* %4, align 4
  %31 = load i32, i32* %6, align 4
  %32 = add nsw i32 %30, %31
  %33 = load i32, i32* %8, align 4
  %34 = sub nsw i32 %33, 1
  %35 = icmp sgt i32 %32, %34
  br i1 %35, label %36, label %37

36:                                               ; preds = %29
  br label %114

37:                                               ; preds = %29
  store i32 1, i32* %9, align 4
  %38 = load i32, i32* %4, align 4
  store i32 %38, i32* %5, align 4
  br label %39

39:                                               ; preds = %59, %37
  %40 = load i32, i32* %5, align 4
  %41 = load i32, i32* %4, align 4
  %42 = load i32, i32* %6, align 4
  %43 = add nsw i32 %41, %42
  %44 = icmp sle i32 %40, %43
  br i1 %44, label %45, label %62

45:                                               ; preds = %39
  %46 = load i32, i32* %5, align 4
  %47 = sext i32 %46 to i64
  %48 = getelementptr inbounds [502 x i8], [502 x i8]* %2, i64 0, i64 %47
  %49 = load i8, i8* %48, align 1
  %50 = load i32, i32* %4, align 4
  %51 = load i32, i32* %6, align 4
  %52 = add nsw i32 %50, %51
  %53 = load i32, i32* %5, align 4
  %54 = load i32, i32* %4, align 4
  %55 = sub nsw i32 %53, %54
  %56 = sub nsw i32 %52, %55
  %57 = sext i32 %56 to i64
  %58 = getelementptr inbounds [502 x i8], [502 x i8]* %3, i64 0, i64 %57
  store i8 %49, i8* %58, align 1
  br label %59

59:                                               ; preds = %45
  %60 = load i32, i32* %5, align 4
  %61 = add nsw i32 %60, 1
  store i32 %61, i32* %5, align 4
  br label %39

62:                                               ; preds = %39
  %63 = load i32, i32* %4, align 4
  store i32 %63, i32* %5, align 4
  br label %64

64:                                               ; preds = %84, %62
  %65 = load i32, i32* %5, align 4
  %66 = load i32, i32* %4, align 4
  %67 = load i32, i32* %6, align 4
  %68 = add nsw i32 %66, %67
  %69 = icmp sle i32 %65, %68
  br i1 %69, label %70, label %87

70:                                               ; preds = %64
  %71 = load i32, i32* %5, align 4
  %72 = sext i32 %71 to i64
  %73 = getelementptr inbounds [502 x i8], [502 x i8]* %3, i64 0, i64 %72
  %74 = load i8, i8* %73, align 1
  %75 = sext i8 %74 to i32
  %76 = load i32, i32* %5, align 4
  %77 = sext i32 %76 to i64
  %78 = getelementptr inbounds [502 x i8], [502 x i8]* %2, i64 0, i64 %77
  %79 = load i8, i8* %78, align 1
  %80 = sext i8 %79 to i32
  %81 = icmp ne i32 %75, %80
  br i1 %81, label %82, label %83

82:                                               ; preds = %70
  store i32 0, i32* %9, align 4
  br label %87

83:                                               ; preds = %70
  br label %84

84:                                               ; preds = %83
  %85 = load i32, i32* %5, align 4
  %86 = add nsw i32 %85, 1
  store i32 %86, i32* %5, align 4
  br label %64

87:                                               ; preds = %82, %64
  %88 = load i32, i32* %9, align 4
  %89 = icmp eq i32 %88, 1
  br i1 %89, label %90, label %110

90:                                               ; preds = %87
  %91 = load i32, i32* %4, align 4
  store i32 %91, i32* %5, align 4
  br label %92

92:                                               ; preds = %105, %90
  %93 = load i32, i32* %5, align 4
  %94 = load i32, i32* %4, align 4
  %95 = load i32, i32* %6, align 4
  %96 = add nsw i32 %94, %95
  %97 = icmp sle i32 %93, %96
  br i1 %97, label %98, label %108

98:                                               ; preds = %92
  %99 = load i32, i32* %5, align 4
  %100 = sext i32 %99 to i64
  %101 = getelementptr inbounds [502 x i8], [502 x i8]* %2, i64 0, i64 %100
  %102 = load i8, i8* %101, align 1
  %103 = sext i8 %102 to i32
  %104 = call i32 (i8*, ...) @printf(i8* getelementptr inbounds ([3 x i8], [3 x i8]* @.str, i64 0, i64 0), i32 %103)
  br label %105

105:                                              ; preds = %98
  %106 = load i32, i32* %5, align 4
  %107 = add nsw i32 %106, 1
  store i32 %107, i32* %5, align 4
  br label %92

108:                                              ; preds = %92
  %109 = call i32 (i8*, ...) @printf(i8* getelementptr inbounds ([2 x i8], [2 x i8]* @.str.1, i64 0, i64 0))
  br label %110

110:                                              ; preds = %108, %87
  br label %111

111:                                              ; preds = %110
  %112 = load i32, i32* %4, align 4
  %113 = add nsw i32 %112, 1
  store i32 %113, i32* %4, align 4
  br label %22

114:                                              ; preds = %36, %22
  br label %115

115:                                              ; preds = %114
  %116 = load i32, i32* %6, align 4
  %117 = add nsw i32 %116, 1
  store i32 %117, i32* %6, align 4
  br label %16

118:                                              ; preds = %16
  %119 = load i32, i32* %1, align 4
  ret i32 %119
}

declare dso_local i32 @gets(...) #1

; Function Attrs: nounwind readonly
declare dso_local i64 @strlen(i8*) #2

declare dso_local i32 @printf(i8*, ...) #1


!llvm.module.flags = !{!0}
!llvm.ident = !{!1}

!0 = !{i32 1, !"wchar_size", i32 4}
!1 = !{!"clang version 10.0.0-4ubuntu1 "}
